#include <math.h>
#include <stdio.h>
#include <stdlib.h>
#include <string.h>

int a;
int res;
int sum;
void dfs(int cnt){
    if(cnt*sum==a){res++; return;}
    if(cnt*sum<a){
        sum*=cnt;
        int j=a/sum;
        for(int i=cnt;i<=j;i++)
            dfs(i);
        sum/=cnt;
        return;
    }
}
int main(){
    int nCases;
    scanf("%d",&nCases);
    for(int i=0;i<nCases;i++){
        scanf("%d",&a);
        res=0; sum=1;
        for(int i=2;i<=a;i++)  dfs(i);
        printf("%d\n",res);
    }
    return 0;
}